target datalayout = "e-m:e-p270:32:32-p271:32:32-p272:64:64-i64:64-i128:128-f80:128-n8:16:32:64-S128"
target triple = "x86_64-pc-linux-gnu"

%union.dt_introspection_field_t = type { %struct.dt_introspection_type_double_t }
%struct.dt_introspection_type_double_t = type { %struct.dt_introspection_type_header_t, double, double, double }
%struct.dt_introspection_type_header_t = type { i32, ptr, ptr, ptr, ptr, i64, i64, ptr }

@.str.88 = private unnamed_addr constant [8 x i8] c"lutname\00", align 1
@.str.92 = private unnamed_addr constant [11 x i8] c"colorspace\00", align 1
@.str.94 = private unnamed_addr constant [14 x i8] c"interpolation\00", align 1
@.str.118 = private unnamed_addr constant [12 x i8] c"filepath[0]\00", align 1
@.str.119 = private unnamed_addr constant [9 x i8] c"filepath\00", align 1
@.str.120 = private unnamed_addr constant [13 x i8] c"nb_keypoints\00", align 1
@.str.121 = private unnamed_addr constant [10 x i8] c"c_clut[0]\00", align 1
@.str.122 = private unnamed_addr constant [7 x i8] c"c_clut\00", align 1
@.str.123 = private unnamed_addr constant [11 x i8] c"lutname[0]\00", align 1

; Function Attrs: nounwind uwtable
define ptr @get_f(ptr noundef %0) #0 {
  %2 = alloca ptr, align 8
  %3 = alloca ptr, align 8
  store ptr %0, ptr %3, align 8, !tbaa !41
  %4 = load ptr, ptr %3, align 8, !tbaa !41
  %5 = call i32 @g_ascii_strcasecmp(ptr noundef %4, ptr noundef @.str.118)
  %6 = icmp ne i32 %5, 0
  br i1 %6, label %8, label %7

7:                                                ; preds = %1
  store ptr @introspection_linear, ptr %2, align 8
  br label %49

8:                                                ; preds = %1
  %9 = load ptr, ptr %3, align 8, !tbaa !41
  %10 = call i32 @g_ascii_strcasecmp(ptr noundef %9, ptr noundef @.str.119)
  %11 = icmp ne i32 %10, 0
  br i1 %11, label %13, label %12

12:                                               ; preds = %8
  store ptr getelementptr inbounds ([11 x %union.dt_introspection_field_t], ptr @introspection_linear, i64 0, i64 1), ptr %2, align 8
  br label %49

13:                                               ; preds = %8
  %14 = load ptr, ptr %3, align 8, !tbaa !41
  %15 = call i32 @g_ascii_strcasecmp(ptr noundef %14, ptr noundef @.str.92)
  %16 = icmp ne i32 %15, 0
  br i1 %16, label %18, label %17

17:                                               ; preds = %13
  store ptr getelementptr inbounds ([11 x %union.dt_introspection_field_t], ptr @introspection_linear, i64 0, i64 2), ptr %2, align 8
  br label %49

18:                                               ; preds = %13
  %19 = load ptr, ptr %3, align 8, !tbaa !41
  %20 = call i32 @g_ascii_strcasecmp(ptr noundef %19, ptr noundef @.str.94)
  %21 = icmp ne i32 %20, 0
  br i1 %21, label %23, label %22

22:                                               ; preds = %18
  store ptr getelementptr inbounds ([11 x %union.dt_introspection_field_t], ptr @introspection_linear, i64 0, i64 3), ptr %2, align 8
  br label %49

23:                                               ; preds = %18
  %24 = load ptr, ptr %3, align 8, !tbaa !41
  %25 = call i32 @g_ascii_strcasecmp(ptr noundef %24, ptr noundef @.str.120)
  %26 = icmp ne i32 %25, 0
  br i1 %26, label %28, label %27

27:                                               ; preds = %23
  store ptr getelementptr inbounds ([11 x %union.dt_introspection_field_t], ptr @introspection_linear, i64 0, i64 4), ptr %2, align 8
  br label %49

28:                                               ; preds = %23
  %29 = load ptr, ptr %3, align 8, !tbaa !41
  %30 = call i32 @g_ascii_strcasecmp(ptr noundef %29, ptr noundef @.str.121)
  %31 = icmp ne i32 %30, 0
  br i1 %31, label %33, label %32

32:                                               ; preds = %28
  store ptr getelementptr inbounds ([11 x %union.dt_introspection_field_t], ptr @introspection_linear, i64 0, i64 5), ptr %2, align 8
  br label %49

33:                                               ; preds = %28
  %34 = load ptr, ptr %3, align 8, !tbaa !41
  %35 = call i32 @g_ascii_strcasecmp(ptr noundef %34, ptr noundef @.str.122)
  %36 = icmp ne i32 %35, 0
  br i1 %36, label %38, label %37

37:                                               ; preds = %33
  store ptr getelementptr inbounds ([11 x %union.dt_introspection_field_t], ptr @introspection_linear, i64 0, i64 6), ptr %2, align 8
  br label %49

38:                                               ; preds = %33
  %39 = load ptr, ptr %3, align 8, !tbaa !41
  %40 = call i32 @g_ascii_strcasecmp(ptr noundef %39, ptr noundef @.str.123)
  %41 = icmp ne i32 %40, 0
  br i1 %41, label %43, label %42

42:                                               ; preds = %38
  store ptr getelementptr inbounds ([11 x %union.dt_introspection_field_t], ptr @introspection_linear, i64 0, i64 7), ptr %2, align 8
  br label %49

43:                                               ; preds = %38
  %44 = load ptr, ptr %3, align 8, !tbaa !41
  %45 = call i32 @g_ascii_strcasecmp(ptr noundef %44, ptr noundef @.str.88)
  %46 = icmp ne i32 %45, 0
  br i1 %46, label %48, label %47

47:                                               ; preds = %43
  store ptr getelementptr inbounds ([11 x %union.dt_introspection_field_t], ptr @introspection_linear, i64 0, i64 8), ptr %2, align 8
  br label %49

48:                                               ; preds = %43
  store ptr null, ptr %2, align 8
  br label %49

49:                                               ; preds = %48, %47, %42, %37, %32, %27, %22, %17, %12, %7
  %50 = load ptr, ptr %2, align 8
  ret ptr %50
}