; Function Attrs: nounwind uwtable
define ptr @get_f(ptr noundef %0) local_unnamed_addr #1 {
  %2 = tail call i32 @g_ascii_strcasecmp(ptr noundef %0, ptr noundef nonnull @.str.118) #25
  %.not = icmp eq i32 %2, 0
  br i1 %.not, label %19, label %3

3:                                                ; preds = %1
  %4 = tail call i32 @g_ascii_strcasecmp(ptr noundef %0, ptr noundef nonnull @.str.119) #25
  %.not10 = icmp eq i32 %4, 0
  br i1 %.not10, label %19, label %5

5:                                                ; preds = %3
  %6 = tail call i32 @g_ascii_strcasecmp(ptr noundef %0, ptr noundef nonnull @.str.92) #25
  %.not11 = icmp eq i32 %6, 0
  br i1 %.not11, label %19, label %7

7:                                                ; preds = %5
  %8 = tail call i32 @g_ascii_strcasecmp(ptr noundef %0, ptr noundef nonnull @.str.94) #25
  %.not12 = icmp eq i32 %8, 0
  br i1 %.not12, label %19, label %9

9:                                                ; preds = %7
  %10 = tail call i32 @g_ascii_strcasecmp(ptr noundef %0, ptr noundef nonnull @.str.120) #25
  %.not13 = icmp eq i32 %10, 0
  br i1 %.not13, label %19, label %11

11:                                               ; preds = %9
  %12 = tail call i32 @g_ascii_strcasecmp(ptr noundef %0, ptr noundef nonnull @.str.121) #25
  %.not14 = icmp eq i32 %12, 0
  br i1 %.not14, label %19, label %13

13:                                               ; preds = %11
  %14 = tail call i32 @g_ascii_strcasecmp(ptr noundef %0, ptr noundef nonnull @.str.122) #25
  %.not15 = icmp eq i32 %14, 0
  br i1 %.not15, label %19, label %15

15:                                               ; preds = %13
  %16 = tail call i32 @g_ascii_strcasecmp(ptr noundef %0, ptr noundef nonnull @.str.123) #25
  %.not16 = icmp eq i32 %16, 0
  br i1 %.not16, label %19, label %17

17:                                               ; preds = %15
  %18 = tail call i32 @g_ascii_strcasecmp(ptr noundef %0, ptr noundef nonnull @.str.88) #25
  %.not17 = icmp eq i32 %18, 0
  %. = select i1 %.not17, ptr getelementptr inbounds nuw (i8, ptr @introspection_linear, i64 704), ptr null
  br label %19

19:                                               ; preds = %17, %15, %13, %11, %9, %7, %5, %3, %1
  %.0 = phi ptr [ @introspection_linear, %1 ], [ getelementptr inbounds nuw (i8, ptr @introspection_linear, i64 88), %3 ], [ getelementptr inbounds nuw (i8, ptr @introspection_linear, i64 176), %5 ], [ getelementptr inbounds nuw (i8, ptr @introspection_linear, i64 264), %7 ], [ getelementptr inbounds nuw (i8, ptr @introspection_linear, i64 352), %9 ], [ getelementptr inbounds nuw (i8, ptr @introspection_linear, i64 440), %11 ], [ getelementptr inbounds nuw (i8, ptr @introspection_linear, i64 528), %13 ], [ getelementptr inbounds nuw (i8, ptr @introspection_linear, i64 616), %15 ], [ %., %17 ]
  ret ptr %.0
}